; Function Attrs: inlinehint mustprogress nounwind uwtable
define internal fastcc void @_ZN9grpc_core12_GLOBAL__N_117BinaryStringValueD2Ev(ptr %.0.val) unnamed_addr #8 align 2 personality ptr @__gxx_personality_v0 {
  %1 = icmp ugt ptr %.0.val, inttoptr (i64 1 to ptr)
  br i1 %1, label %2, label %_ZN9grpc_core12_GLOBAL__N_19WireValueD2Ev.exit

2:                                                ; preds = %0
  %3 = atomicrmw sub ptr %.0.val, i64 1 acq_rel, align 8
  %4 = icmp eq i64 %3, 1
  br i1 %4, label %5, label %_ZN9grpc_core12_GLOBAL__N_19WireValueD2Ev.exit

5:                                                ; preds = %2
  %6 = getelementptr inbounds nuw i8, ptr %.0.val, i64 8
  %7 = load ptr, ptr %6, align 8, !tbaa !123
  invoke void %7(ptr noundef nonnull align 8 dereferenceable(16) %.0.val)
          to label %_ZN9grpc_core12_GLOBAL__N_19WireValueD2Ev.exit unwind label %8

8:                                                ; preds = %5
  %9 = landingpad { ptr, i32 }
          catch ptr null
  %10 = extractvalue { ptr, i32 } %9, 0
  tail call void @__clang_call_terminate(ptr %10) #30
  unreachable

_ZN9grpc_core12_GLOBAL__N_19WireValueD2Ev.exit:   ; preds = %0, %2, %5
  ret void
}